; Function Attrs: mustprogress uwtable
define hidden noundef double @_ZN2cv8tracking4impl3tld8varianceERKNS_3MatE(ptr noundef nonnull align 8 dereferenceable(96) %0) local_unnamed_addr #6 personality ptr @__gxx_personality_v0 {
  %2 = alloca %"class.cv::Scalar_", align 8
  %3 = alloca %"class.cv::_InputArray", align 8
  %4 = alloca %"class.cv::_InputArray", align 8
  call void @llvm.lifetime.start.p0(i64 32, ptr nonnull %2) #22
  call void @llvm.lifetime.start.p0(i64 24, ptr nonnull %3) #22
  %5 = getelementptr inbounds nuw i8, ptr %3, i64 16
  store i32 0, ptr %5, align 8, !tbaa !36
  %6 = getelementptr inbounds nuw i8, ptr %3, i64 20
  store i32 0, ptr %6, align 4, !tbaa !38
  store i32 16842752, ptr %3, align 8, !tbaa !39
  %7 = getelementptr inbounds nuw i8, ptr %3, i64 8
  store ptr %0, ptr %7, align 8, !tbaa !41
  call void @_ZN2cv3sumERKNS_11_InputArrayE(ptr dead_on_unwind nonnull writable sret(%"class.cv::Scalar_") align 8 %2, ptr noundef nonnull align 8 dereferenceable(24) %3)
  %8 = load double, ptr %2, align 8, !tbaa !46
  call void @llvm.lifetime.end.p0(i64 24, ptr nonnull %3) #22
  call void @llvm.lifetime.end.p0(i64 32, ptr nonnull %2) #22
  call void @llvm.lifetime.start.p0(i64 24, ptr nonnull %4) #22
  %9 = getelementptr inbounds nuw i8, ptr %4, i64 16
  store i32 0, ptr %9, align 8, !tbaa !36
  %10 = getelementptr inbounds nuw i8, ptr %4, i64 20
  store i32 0, ptr %10, align 4, !tbaa !38
  store i32 16842752, ptr %4, align 8, !tbaa !39
  %11 = getelementptr inbounds nuw i8, ptr %4, i64 8
  store ptr %0, ptr %11, align 8, !tbaa !41
  %12 = call noundef nonnull align 8 dereferenceable(24) ptr @_ZN2cv7noArrayEv()
  %13 = call noundef double @_ZN2cv4normERKNS_11_InputArrayEiS2_(ptr noundef nonnull align 8 dereferenceable(24) %4, i32 noundef 5, ptr noundef nonnull align 8 dereferenceable(24) %12)
  call void @llvm.lifetime.end.p0(i64 24, ptr nonnull %4) #22
  %14 = getelementptr inbounds nuw i8, ptr %0, i64 12
  %15 = load i32, ptr %14, align 4, !tbaa !16
  %16 = getelementptr inbounds nuw i8, ptr %0, i64 8
  %17 = load i32, ptr %16, align 8, !tbaa !3
  %18 = mul nsw i32 %17, %15
  %19 = sitofp i32 %18 to double
  %20 = fdiv double %8, %19
  %21 = fdiv double %13, %19
  %22 = fneg double %20
  %23 = call double @llvm.fmuladd.f64(double %22, double %20, double %21)
  ret double %23
}